; Function Attrs: mustprogress nounwind uwtable
define internal noundef i32 @_ZL6freezeI6ConfigIL8oop_kind0E17EpsilonBarrierSetEEiP10JavaThreadPl(ptr noundef %0, ptr noundef %1) #0 {
  %3 = getelementptr inbounds i8, ptr %0, i64 1344
  %4 = load ptr, ptr %3, align 8
  %5 = getelementptr inbounds i8, ptr %0, i64 1336
  %6 = load ptr, ptr %5, align 8
  %7 = icmp ugt ptr %4, %6
  %8 = icmp ult ptr %4, %1
  %or.cond = or i1 %8, %7
  br i1 %or.cond, label %9, label %10

9:                                                ; preds = %2
  store ptr null, ptr %3, align 8
  br label %10

10:                                               ; preds = %2, %9
  %11 = tail call noundef i32 @_ZN6ConfigIL8oop_kind0E17EpsilonBarrierSetE6freezeEP10JavaThreadPl(ptr noundef nonnull %0, ptr noundef %1)
  %12 = getelementptr inbounds i8, ptr %0, i64 408
  %13 = load ptr, ptr %12, align 8
  %14 = getelementptr inbounds i8, ptr %13, i64 16
  %15 = load ptr, ptr %14, align 8
  %16 = load ptr, ptr %15, align 8
  %.not.i.i = icmp eq ptr %16, null
  br i1 %.not.i.i, label %_ZN17HandleMarkCleanerD2Ev.exit, label %17

17:                                               ; preds = %10
  tail call void @_ZN10HandleMark17chop_later_chunksEv(ptr noundef nonnull align 8 dereferenceable(56) %13) #16
  %.pre.i.i = load ptr, ptr %14, align 8
  br label %_ZN17HandleMarkCleanerD2Ev.exit

_ZN17HandleMarkCleanerD2Ev.exit:                  ; preds = %10, %17
  %18 = phi ptr [ %15, %10 ], [ %.pre.i.i, %17 ]
  %19 = getelementptr inbounds i8, ptr %13, i64 8
  %20 = load ptr, ptr %19, align 8
  %21 = getelementptr inbounds i8, ptr %20, i64 24
  store ptr %18, ptr %21, align 8
  %22 = getelementptr inbounds i8, ptr %13, i64 24
  %23 = load ptr, ptr %22, align 8
  %24 = load ptr, ptr %19, align 8
  %25 = getelementptr inbounds i8, ptr %24, i64 32
  store ptr %23, ptr %25, align 8
  %26 = getelementptr inbounds i8, ptr %13, i64 32
  %27 = load ptr, ptr %26, align 8
  %28 = load ptr, ptr %19, align 8
  %29 = getelementptr inbounds i8, ptr %28, i64 40
  store ptr %27, ptr %29, align 8
  ret i32 %11
}